Certificate:
    Data:
        Version: 3 (0x2)
        Serial Number: 5536 (0x15a0)
        Signature Algorithm: sha1WithRSAEncryption
        Issuer: C=US, ST=NY, L=New York, O=Bloomberg LP, OU=CTO Office, CN=Bloomberg LP CA/emailAddress=open-tech@bloomberg.net
        Validity
            Not Before: Apr 16 06:00:00 2015 GMT
            Not After : Apr 20 06:00:00 2015 GMT
        Subject: C=US, ST=NY, L=New York, O=Bloomberg LP, OU=CTO Office, CN=great_uni_hack_spring_2015_007/emailAddress=open-tech@bloomberg.net
        Subject Public Key Info:
            Public Key Algorithm: rsaEncryption
            RSA Public Key: (1024 bit)
                Modulus (1024 bit):
                    00:df:e7:d5:76:0c:38:56:4b:bd:31:6e:76:d3:61:
                    7f:c3:19:aa:24:96:a1:7e:8f:45:ec:a2:86:ec:ef:
                    b3:13:b6:9b:35:14:6c:e5:65:15:36:4d:bc:86:da:
                    4e:d2:06:02:ca:7d:92:cd:75:91:97:44:b0:ba:31:
                    3e:d9:a9:c2:6c:af:dc:bb:6d:0f:7a:6d:b7:55:32:
                    dc:32:c1:da:1f:4d:1b:c5:01:99:7f:eb:41:3e:6c:
                    c2:05:23:2b:24:1c:2a:88:69:67:f7:e0:0a:5c:db:
                    b7:2d:3b:9c:4b:e1:9a:73:52:8e:e8:f0:2a:50:67:
                    c6:3c:ed:b5:58:fd:9f:90:05
                Exponent: 65537 (0x10001)
        X509v3 extensions:
            X509v3 Basic Constraints: 
                CA:FALSE
            Netscape Comment: 
                Easy-RSA Generated Certificate
            X509v3 Subject Key Identifier: 
                C1:04:81:67:02:EA:9A:4A:86:76:00:16:A5:9E:B9:E7:00:54:78:7E
            X509v3 Authority Key Identifier: 
                keyid:F3:21:76:1F:DA:B5:E7:03:FC:ED:D7:71:B8:1C:55:2D:7E:65:5F:14
                DirName:/C=US/ST=NY/L=New York/O=Bloomberg LP/OU=CTO Office/CN=Bloomberg LP CA/emailAddress=open-tech@bloomberg.net
                serial:81:F3:7A:1C:BC:C6:E8:A2

            X509v3 Extended Key Usage: 
                TLS Web Client Authentication
            X509v3 Key Usage: 
                Digital Signature
    Signature Algorithm: sha1WithRSAEncryption
        5c:66:0d:67:a0:df:37:fb:12:29:9b:79:4d:a9:4f:f0:24:ae:
        f3:9c:50:31:48:8b:a9:e0:c8:68:f7:e2:12:10:c9:76:6a:45:
        75:ac:98:c5:fb:e8:cc:1c:80:4e:d6:9c:05:c6:04:f2:26:2d:
        5c:43:34:cc:2c:39:7b:3e:e9:d2:8c:eb:ba:81:25:ec:bf:32:
        3b:5e:a9:f8:f1:7b:a1:fe:c8:b6:9d:60:47:64:65:c9:2f:bf:
        13:93:f4:62:68:89:fb:60:84:b0:9e:c7:80:a2:48:1e:59:fb:
        3d:00:09:40:bb:18:13:9d:54:a8:40:c9:59:f1:96:b7:5a:be:
        6c:ac
-----BEGIN CERTIFICATE-----
MIIEEjCCA3ugAwIBAgICFaAwDQYJKoZIhvcNAQEFBQAwgZsxCzAJBgNVBAYTAlVT
MQswCQYDVQQIEwJOWTERMA8GA1UEBxMITmV3IFlvcmsxFTATBgNVBAoTDEJsb29t
YmVyZyBMUDETMBEGA1UECxMKQ1RPIE9mZmljZTEYMBYGA1UEAxMPQmxvb21iZXJn
IExQIENBMSYwJAYJKoZIhvcNAQkBFhdvcGVuLXRlY2hAYmxvb21iZXJnLm5ldDAe
Fw0xNTA0MTYwNjAwMDBaFw0xNTA0MjAwNjAwMDBaMIGqMQswCQYDVQQGEwJVUzEL
MAkGA1UECBMCTlkxETAPBgNVBAcTCE5ldyBZb3JrMRUwEwYDVQQKEwxCbG9vbWJl
cmcgTFAxEzARBgNVBAsTCkNUTyBPZmZpY2UxJzAlBgNVBAMUHmdyZWF0X3VuaV9o
YWNrX3NwcmluZ18yMDE1XzAwNzEmMCQGCSqGSIb3DQEJARYXb3Blbi10ZWNoQGJs
b29tYmVyZy5uZXQwgZ8wDQYJKoZIhvcNAQEBBQADgY0AMIGJAoGBAN/n1XYMOFZL
vTFudtNhf8MZqiSWoX6PReyihuzvsxO2mzUUbOVlFTZNvIbaTtIGAsp9ks11kZdE
sLoxPtmpwmyv3LttD3ptt1Uy3DLB2h9NG8UBmX/rQT5swgUjKyQcKohpZ/fgClzb
ty07nEvhmnNSjujwKlBnxjzttVj9n5AFAgMBAAGjggFSMIIBTjAJBgNVHRMEAjAA
MC0GCWCGSAGG+EIBDQQgFh5FYXN5LVJTQSBHZW5lcmF0ZWQgQ2VydGlmaWNhdGUw
HQYDVR0OBBYEFMEEgWcC6ppKhnYAFqWeuecAVHh+MIHQBgNVHSMEgcgwgcWAFPMh
dh/atecD/O3XcbgcVS1+ZV8UoYGhpIGeMIGbMQswCQYDVQQGEwJVUzELMAkGA1UE
CBMCTlkxETAPBgNVBAcTCE5ldyBZb3JrMRUwEwYDVQQKEwxCbG9vbWJlcmcgTFAx
EzARBgNVBAsTCkNUTyBPZmZpY2UxGDAWBgNVBAMTD0Jsb29tYmVyZyBMUCBDQTEm
MCQGCSqGSIb3DQEJARYXb3Blbi10ZWNoQGJsb29tYmVyZy5uZXSCCQCB83ocvMbo
ojATBgNVHSUEDDAKBggrBgEFBQcDAjALBgNVHQ8EBAMCB4AwDQYJKoZIhvcNAQEF
BQADgYEAXGYNZ6DfN/sSKZt5TalP8CSu85xQMUiLqeDIaPfiEhDJdmpFdayYxfvo
zByATtacBcYE8iYtXEM0zCw5ez7p0ozruoEl7L8yO16p+PF7of7Itp1gR2RlyS+/
E5P0YmiJ+2CEsJ7HgKJIHln7PQAJQLsYE51UqEDJWfGWt1q+bKw=
-----END CERTIFICATE-----
